target datalayout = "e-m:e-p270:32:32-p271:32:32-p272:64:64-i64:64-i128:128-f80:128-n8:16:32:64-S128"
target triple = "x86_64-pc-linux-gnu"

%struct.hs_scratch = type { i32, i8, i32, i32, i32, i32, i32, %struct.RoseContext, ptr, ptr, ptr, ptr, ptr, ptr, ptr, i64, %struct.catchup_pq, %struct.core_info, %struct.match_deduper, i32, i32, ptr, ptr, ptr, ptr, ptr, i64, i32, i32, i32, i32, i32, ptr, ptr, i8 }
%struct.RoseContext = type { i8, i64, i64, i64, i64, i64, i64, i64, i64, i64, i32, i32, ptr, i64, ptr, i64 }
%struct.catchup_pq = type { ptr, i32 }
%struct.core_info = type { ptr, ptr, ptr, ptr, ptr, ptr, ptr, ptr, i64, ptr, i64, i64, i8 }
%struct.match_deduper = type { [2 x ptr], [2 x ptr], [2 x ptr], i32, i32, i64, i8 }
%struct.RoseEngine = type { i8, i8, i8, i8, i8, i8, i8, i8, i8, i32, i32, i32, i32, i32, i32, i32, i32, i32, i32, i32, i32, i32, i32, i32, i32, i32, i32, i32, i32, i32, i32, i32, i32, i32, i32, i32, i32, i32, i32, i32, i32, i32, i32, i32, i32, i32, i32, i32, i32, i32, i32, i32, i32, i32, i32, i32, i32, i32, i32, i32, i32, i32, i32, i32, i32, i32, i64, i64, i32, i32, i32, i32, i32, i32, i32, %struct.RoseStateOffsets, %struct.RoseBoundaryReports, i32, i32, i32, i32, i32, i32, i32, i32, i32, i32, i32, i32, %struct.scatter_full_plan }
%struct.RoseStateOffsets = type { i32, i32, i32, i32, i32, i32, i32, i32, i32, i32, i32, i32, i32, i32, i32, i32, i32, i32, i32, i32, i32, i32, i32 }
%struct.RoseBoundaryReports = type { i32, i32, i32 }
%struct.scatter_full_plan = type { i32, i32, i32, i32, i32, i32, i32, i32 }

; Function Attrs: nounwind uwtable
define hidden i64 @roseDelayRebuildCallback(i64 noundef %0, i32 noundef %1, ptr noundef %2) #0 {
  %4 = alloca i64, align 8
  %5 = alloca i32, align 4
  %6 = alloca ptr, align 8
  %7 = alloca ptr, align 8
  %8 = alloca ptr, align 8
  %9 = alloca ptr, align 8
  %10 = alloca i64, align 8
  %11 = alloca i64, align 8
  %12 = alloca i64, align 8
  %13 = alloca i8, align 1
  %14 = alloca i64, align 8
  store i64 %0, ptr %4, align 8
  store i32 %1, ptr %5, align 4
  store ptr %2, ptr %6, align 8
  call void @llvm.lifetime.start.p0(i64 8, ptr %7) #8
  %15 = load ptr, ptr %6, align 8
  %16 = getelementptr inbounds nuw %struct.hs_scratch, ptr %15, i32 0, i32 7
  store ptr %16, ptr %7, align 8
  call void @llvm.lifetime.start.p0(i64 8, ptr %8) #8
  %17 = load ptr, ptr %6, align 8
  %18 = getelementptr inbounds nuw %struct.hs_scratch, ptr %17, i32 0, i32 17
  store ptr %18, ptr %8, align 8
  call void @llvm.lifetime.start.p0(i64 8, ptr %9) #8
  %19 = load ptr, ptr %8, align 8
  %20 = getelementptr inbounds nuw %struct.core_info, ptr %19, i32 0, i32 2
  %21 = load ptr, ptr %20, align 8
  store ptr %21, ptr %9, align 8
  call void @llvm.lifetime.start.p0(i64 8, ptr %10) #8
  %22 = load ptr, ptr %8, align 8
  %23 = getelementptr inbounds nuw %struct.core_info, ptr %22, i32 0, i32 10
  %24 = load i64, ptr %23, align 8
  %25 = load ptr, ptr %9, align 8
  %26 = getelementptr inbounds nuw %struct.RoseEngine, ptr %25, i32 0, i32 74
  %27 = load i32, ptr %26, align 8
  %28 = zext i32 %27 to i64
  %29 = icmp ult i64 %24, %28
  br i1 %29, label %30, label %34

30:                                               ; preds = %3
  %31 = load ptr, ptr %8, align 8
  %32 = getelementptr inbounds nuw %struct.core_info, ptr %31, i32 0, i32 10
  %33 = load i64, ptr %32, align 8
  br label %39

34:                                               ; preds = %3
  %35 = load ptr, ptr %9, align 8
  %36 = getelementptr inbounds nuw %struct.RoseEngine, ptr %35, i32 0, i32 74
  %37 = load i32, ptr %36, align 8
  %38 = zext i32 %37 to i64
  br label %39

39:                                               ; preds = %34, %30
  %40 = phi i64 [ %33, %30 ], [ %38, %34 ]
  store i64 %40, ptr %10, align 8
  call void @llvm.lifetime.start.p0(i64 8, ptr %11) #8
  %41 = load ptr, ptr %8, align 8
  %42 = getelementptr inbounds nuw %struct.core_info, ptr %41, i32 0, i32 11
  %43 = load i64, ptr %42, align 8
  %44 = load i64, ptr %10, align 8
  %45 = sub i64 %43, %44
  %46 = load i64, ptr %4, align 8
  %47 = add i64 %45, %46
  %48 = add i64 %47, 1
  store i64 %48, ptr %11, align 8
  br label %49

49:                                               ; preds = %39
  br label %50

50:                                               ; preds = %49
  br label %51

51:                                               ; preds = %50
  call void @llvm.lifetime.start.p0(i64 8, ptr %12) #8
  store i64 0, ptr %12, align 8
  call void @llvm.lifetime.start.p0(i64 1, ptr %13) #8
  store i8 0, ptr %13, align 1
  call void @llvm.lifetime.start.p0(i64 8, ptr %14) #8
  %52 = load ptr, ptr %9, align 8
  %53 = load ptr, ptr %6, align 8
  %54 = load i32, ptr %5, align 4
  %55 = load i64, ptr %11, align 8
  %56 = call i64 @roseRunProgram(ptr noundef %52, ptr noundef %53, i32 noundef %54, i64 noundef 0, i64 noundef %55, i8 noundef zeroext 0)
  store i64 %56, ptr %14, align 8
  %57 = load ptr, ptr %7, align 8
  %58 = getelementptr inbounds nuw %struct.RoseContext, ptr %57, i32 0, i32 1
  %59 = load i64, ptr %58, align 8
  call void @llvm.lifetime.end.p0(i64 8, ptr %14) #8
  call void @llvm.lifetime.end.p0(i64 1, ptr %13) #8
  call void @llvm.lifetime.end.p0(i64 8, ptr %12) #8
  call void @llvm.lifetime.end.p0(i64 8, ptr %11) #8
  call void @llvm.lifetime.end.p0(i64 8, ptr %10) #8
  call void @llvm.lifetime.end.p0(i64 8, ptr %9) #8
  call void @llvm.lifetime.end.p0(i64 8, ptr %8) #8
  call void @llvm.lifetime.end.p0(i64 8, ptr %7) #8
  ret i64 %59
}