; Function Attrs: nounwind uwtable
define hidden i64 @roseDelayRebuildCallback(i64 noundef %0, i32 noundef %1, ptr noundef %2) local_unnamed_addr #0 {
  %4 = getelementptr inbounds nuw i8, ptr %2, i64 248
  %5 = load ptr, ptr %4, align 8
  %6 = getelementptr inbounds nuw i8, ptr %2, i64 312
  %7 = load i64, ptr %6, align 8
  %8 = getelementptr inbounds nuw i8, ptr %5, i64 280
  %9 = load i32, ptr %8, align 8
  %10 = zext i32 %9 to i64
  %. = tail call i64 @llvm.umin.i64(i64 %7, i64 %10)
  %11 = getelementptr inbounds nuw i8, ptr %2, i64 320
  %12 = load i64, ptr %11, align 8
  %13 = add i64 %0, 1
  %14 = add i64 %13, %12
  %15 = sub i64 %14, %.
  %16 = tail call i64 @roseRunProgram(ptr noundef %5, ptr noundef %2, i32 noundef %1, i64 noundef 0, i64 noundef %15, i8 noundef zeroext 0) #6
  %17 = getelementptr inbounds nuw i8, ptr %2, i64 40
  %18 = load i64, ptr %17, align 8
  ret i64 %18
}